; Function Attrs: nounwind uwtable
define range(i32 -1, 1) i32 @gvLayout(ptr noundef %0, ptr noundef %1, ptr noundef %2) local_unnamed_addr #0 {
  %4 = alloca [256 x i8], align 16
  %5 = tail call i32 @gvlayout_select(ptr noundef %0, ptr noundef %2) #8
  %6 = icmp eq i32 %5, 999
  br i1 %6, label %7, label %10

7:                                                ; preds = %3
  %8 = tail call ptr @gvplugin_list(ptr noundef %0, i32 noundef 1, ptr noundef %2) #8
  %9 = tail call i32 (i32, ptr, ...) @agerr(i32 noundef 1, ptr noundef nonnull @.str.2, ptr noundef %2, ptr noundef %8) #8
  br label %39

10:                                               ; preds = %3
  %11 = tail call i32 @gvLayoutJobs(ptr noundef %0, ptr noundef %1) #8
  %12 = icmp eq i32 %11, -1
  br i1 %12, label %39, label %13

13:                                               ; preds = %10
  %14 = getelementptr inbounds nuw i8, ptr %1, i64 16
  %15 = load ptr, ptr %14, align 8
  %16 = getelementptr inbounds nuw i8, ptr %15, i64 16
  %17 = load ptr, ptr %16, align 8
  %18 = getelementptr inbounds nuw i8, ptr %17, i64 81
  %19 = load i8, ptr %18, align 1
  %20 = trunc i8 %19 to i1
  %. = select i1 %20, i64 40, i64 32
  %.77 = select i1 %20, i64 32, i64 40
  %.78 = select i1 %20, i64 56, i64 48
  %.79 = select i1 %20, i64 48, i64 56
  %21 = getelementptr inbounds nuw i8, ptr %15, i64 %.
  %22 = load double, ptr %21, align 8
  %23 = fcmp ult double %22, 0.000000e+00
  %.in.v = select i1 %23, double -5.000000e-01, double 5.000000e-01
  %.in = fadd double %22, %.in.v
  %24 = fptosi double %.in to i32
  %25 = getelementptr inbounds nuw i8, ptr %15, i64 %.77
  %26 = load double, ptr %25, align 8
  %27 = fcmp ult double %26, 0.000000e+00
  %.in49.v = select i1 %27, double -5.000000e-01, double 5.000000e-01
  %.in49 = fadd double %26, %.in49.v
  %28 = fptosi double %.in49 to i32
  %29 = getelementptr inbounds nuw i8, ptr %15, i64 %.78
  %30 = load double, ptr %29, align 8
  %31 = fcmp ult double %30, 0.000000e+00
  %.in50.v = select i1 %31, double -5.000000e-01, double 5.000000e-01
  %.in50 = fadd double %30, %.in50.v
  %32 = fptosi double %.in50 to i32
  %33 = getelementptr inbounds nuw i8, ptr %15, i64 %.79
  %34 = load double, ptr %33, align 8
  %35 = fcmp ult double %34, 0.000000e+00
  %.in51.v = select i1 %35, double -5.000000e-01, double 5.000000e-01
  %.in51 = fadd double %34, %.in51.v
  %36 = fptosi double %.in51 to i32
  %37 = call i32 (ptr, i64, ptr, ...) @snprintf(ptr noundef nonnull dereferenceable(1) %4, i64 noundef 256, ptr noundef nonnull @.str.3, i32 noundef %24, i32 noundef %28, i32 noundef %32, i32 noundef %36) #8
  %38 = call i32 @agsafeset(ptr noundef nonnull %1, ptr noundef nonnull @.str.4, ptr noundef nonnull %4, ptr noundef nonnull @.str.5) #8
  br label %39

39:                                               ; preds = %10, %13, %7
  %.0 = phi i32 [ -1, %7 ], [ 0, %13 ], [ -1, %10 ]
  ret i32 %.0
}